; Function Attrs: mustprogress nounwind uwtable
define hidden void @_ZN22G1ConcurrentMarkThread24concurrent_undo_cycle_doEv(ptr nocapture noundef nonnull readonly align 8 dereferenceable(948) %0) local_unnamed_addr #0 align 2 {
  %2 = alloca %class.HandleMark, align 8
  %3 = tail call align 8 ptr @llvm.threadlocal.address.p0(ptr align 8 @_ZN6Thread12_thr_currentE)
  %4 = load ptr, ptr %3, align 8
  call void @_ZN10HandleMark10initializeEP6Thread(ptr noundef nonnull align 8 dereferenceable(56) %2, ptr noundef %4) #11
  %5 = load ptr, ptr %3, align 8
  %6 = getelementptr inbounds i8, ptr %5, i64 800
  %7 = load ptr, ptr %6, align 8
  %8 = getelementptr inbounds i8, ptr %7, i64 24
  %9 = load ptr, ptr %8, align 8
  %10 = getelementptr inbounds i8, ptr %7, i64 32
  %11 = load ptr, ptr %10, align 8
  %12 = getelementptr inbounds i8, ptr %7, i64 40
  %13 = load ptr, ptr %12, align 8
  %14 = getelementptr inbounds i8, ptr %7, i64 8
  %15 = load i64, ptr %14, align 8
  %16 = getelementptr inbounds i8, ptr %0, i64 936
  %17 = load ptr, ptr %16, align 8
  %18 = getelementptr inbounds i8, ptr %17, i64 1494
  %19 = load volatile i8, ptr %18, align 2
  %20 = trunc i8 %19 to i1
  br i1 %20, label %25, label %21

21:                                               ; preds = %1
  call void @_ZN16G1ConcurrentMark21flush_all_task_cachesEv(ptr noundef nonnull align 8 dereferenceable(1849) %17) #11
  %22 = call noundef zeroext i1 @_ZN22G1ConcurrentMarkThread29phase_clear_cld_claimed_marksEv(ptr noundef nonnull align 8 dereferenceable(948) %0)
  br i1 %22, label %25, label %23

23:                                               ; preds = %21
  %24 = call noundef zeroext i1 @_ZN22G1ConcurrentMarkThread32phase_clear_bitmap_for_next_markEv(ptr noundef nonnull align 8 dereferenceable(948) %0)
  br label %25

25:                                               ; preds = %21, %1, %23
  %26 = load ptr, ptr %9, align 8
  %.not.i.i.i.i = icmp eq ptr %26, null
  br i1 %.not.i.i.i.i, label %28, label %27

27:                                               ; preds = %25
  call void @_ZN5Arena17set_size_in_bytesEm(ptr noundef nonnull align 8 dereferenceable(48) %7, i64 noundef %15) #11
  call void @_ZN5Chunk9next_chopEPS_(ptr noundef nonnull %9) #11
  br label %28

28:                                               ; preds = %27, %25
  %29 = load ptr, ptr %10, align 8
  %.not8.i.i.i.i = icmp eq ptr %29, %11
  br i1 %.not8.i.i.i.i, label %_ZN12ResourceMarkD2Ev.exit, label %30

30:                                               ; preds = %28
  store ptr %9, ptr %8, align 8
  store ptr %11, ptr %10, align 8
  store ptr %13, ptr %12, align 8
  br label %_ZN12ResourceMarkD2Ev.exit

_ZN12ResourceMarkD2Ev.exit:                       ; preds = %28, %30
  call void @_ZN10HandleMarkD1Ev(ptr noundef nonnull align 8 dereferenceable(56) %2) #11
  ret void
}